target datalayout = "e-m:e-p270:32:32-p271:32:32-p272:64:64-i64:64-i128:128-f80:128-n8:16:32:64-S128"
target triple = "x86_64-pc-linux-gnu"

%struct.EVP_AES_OCB_CTX = type { %union.anon.7, %union.anon.8, i32, i32, %struct.ocb128_context, ptr, [16 x i8], [16 x i8], [16 x i8], i32, i32, i32, i32 }
%union.anon.7 = type { double, [240 x i8] }
%union.anon.8 = type { double, [240 x i8] }
%struct.ocb128_context = type { ptr, ptr, ptr, ptr, ptr, i64, i64, %union.OCB_BLOCK, %union.OCB_BLOCK, ptr, %struct.anon }
%union.OCB_BLOCK = type { [2 x i64] }
%struct.anon = type { i64, i64, %union.OCB_BLOCK, %union.OCB_BLOCK, %union.OCB_BLOCK, %union.OCB_BLOCK }

@OPENSSL_ia32cap_P = external global [0 x i32], align 4
@.str = private unnamed_addr constant [30 x i8] c"../openssl/crypto/evp/e_aes.c\00", align 1
@__func__.aes_ocb_init_key = private unnamed_addr constant [17 x i8] c"aes_ocb_init_key\00", align 1

; Function Attrs: nounwind uwtable
define internal i32 @aes_ocb_init_key(ptr noundef %0, ptr noundef %1, ptr noundef %2, i32 noundef %3) #0 {
  %5 = alloca i32, align 4
  %6 = alloca ptr, align 8
  %7 = alloca ptr, align 8
  %8 = alloca ptr, align 8
  %9 = alloca i32, align 4
  %10 = alloca ptr, align 8
  %11 = alloca i32, align 4
  %12 = alloca i32, align 4
  store ptr %0, ptr %6, align 8, !tbaa !7
  store ptr %1, ptr %7, align 8, !tbaa !10
  store ptr %2, ptr %8, align 8, !tbaa !10
  store i32 %3, ptr %9, align 4, !tbaa !3
  call void @llvm.lifetime.start.p0(i64 8, ptr %10) #4
  %13 = load ptr, ptr %6, align 8, !tbaa !7
  %14 = call ptr @EVP_CIPHER_CTX_get_cipher_data(ptr noundef %13)
  store ptr %14, ptr %10, align 8, !tbaa !12
  %15 = load ptr, ptr %8, align 8, !tbaa !10
  %16 = icmp eq ptr %15, null
  br i1 %16, label %17, label %21

17:                                               ; preds = %4
  %18 = load ptr, ptr %7, align 8, !tbaa !10
  %19 = icmp eq ptr %18, null
  br i1 %19, label %20, label %21

20:                                               ; preds = %17
  store i32 1, ptr %5, align 4
  store i32 1, ptr %11, align 4
  br label %149

21:                                               ; preds = %17, %4
  %22 = load ptr, ptr %7, align 8, !tbaa !10
  %23 = icmp ne ptr %22, null
  br i1 %23, label %24, label %118

24:                                               ; preds = %21
  call void @llvm.lifetime.start.p0(i64 4, ptr %12) #4
  %25 = load ptr, ptr %6, align 8, !tbaa !7
  %26 = call i32 @EVP_CIPHER_CTX_get_key_length(ptr noundef %25)
  %27 = mul nsw i32 %26, 8
  store i32 %27, ptr %12, align 4, !tbaa !3
  %28 = load i32, ptr %12, align 4, !tbaa !3
  %29 = icmp sle i32 %28, 0
  br i1 %29, label %30, label %31

30:                                               ; preds = %24
  call void @ERR_new()
  call void @ERR_set_debug(ptr noundef @.str, i32 noundef 3922, ptr noundef @__func__.aes_ocb_init_key)
  call void (i32, i32, ptr, ...) @ERR_set_error(i32 noundef 6, i32 noundef 130, ptr noundef null)
  store i32 0, ptr %5, align 4
  store i32 1, ptr %11, align 4
  br label %115

31:                                               ; preds = %24
  br label %32

32:                                               ; preds = %31
  %33 = load i32, ptr getelementptr inbounds ([0 x i32], ptr @OPENSSL_ia32cap_P, i64 0, i64 1), align 4, !tbaa !3
  %34 = and i32 %33, 512
  %35 = icmp ne i32 %34, 0
  br i1 %35, label %36, label %57

36:                                               ; preds = %32
  %37 = load ptr, ptr %7, align 8, !tbaa !10
  %38 = load i32, ptr %12, align 4, !tbaa !3
  %39 = load ptr, ptr %10, align 8, !tbaa !12
  %40 = getelementptr inbounds nuw %struct.EVP_AES_OCB_CTX, ptr %39, i32 0, i32 0
  %41 = call i32 @vpaes_set_encrypt_key(ptr noundef %37, i32 noundef %38, ptr noundef %40)
  %42 = load ptr, ptr %7, align 8, !tbaa !10
  %43 = load i32, ptr %12, align 4, !tbaa !3
  %44 = load ptr, ptr %10, align 8, !tbaa !12
  %45 = getelementptr inbounds nuw %struct.EVP_AES_OCB_CTX, ptr %44, i32 0, i32 1
  %46 = call i32 @vpaes_set_decrypt_key(ptr noundef %42, i32 noundef %43, ptr noundef %45)
  %47 = load ptr, ptr %10, align 8, !tbaa !12
  %48 = getelementptr inbounds nuw %struct.EVP_AES_OCB_CTX, ptr %47, i32 0, i32 4
  %49 = load ptr, ptr %10, align 8, !tbaa !12
  %50 = getelementptr inbounds nuw %struct.EVP_AES_OCB_CTX, ptr %49, i32 0, i32 0
  %51 = load ptr, ptr %10, align 8, !tbaa !12
  %52 = getelementptr inbounds nuw %struct.EVP_AES_OCB_CTX, ptr %51, i32 0, i32 1
  %53 = call i32 @CRYPTO_ocb128_init(ptr noundef %48, ptr noundef %50, ptr noundef %52, ptr noundef @vpaes_encrypt, ptr noundef @vpaes_decrypt, ptr noundef null)
  %54 = icmp ne i32 %53, 0
  br i1 %54, label %56, label %55

55:                                               ; preds = %36
  store i32 0, ptr %5, align 4
  store i32 1, ptr %11, align 4
  br label %115

56:                                               ; preds = %36
  br label %79

57:                                               ; preds = %32
  %58 = load ptr, ptr %7, align 8, !tbaa !10
  %59 = load i32, ptr %12, align 4, !tbaa !3
  %60 = load ptr, ptr %10, align 8, !tbaa !12
  %61 = getelementptr inbounds nuw %struct.EVP_AES_OCB_CTX, ptr %60, i32 0, i32 0
  %62 = call i32 @AES_set_encrypt_key(ptr noundef %58, i32 noundef %59, ptr noundef %61)
  %63 = load ptr, ptr %7, align 8, !tbaa !10
  %64 = load i32, ptr %12, align 4, !tbaa !3
  %65 = load ptr, ptr %10, align 8, !tbaa !12
  %66 = getelementptr inbounds nuw %struct.EVP_AES_OCB_CTX, ptr %65, i32 0, i32 1
  %67 = call i32 @AES_set_decrypt_key(ptr noundef %63, i32 noundef %64, ptr noundef %66)
  %68 = load ptr, ptr %10, align 8, !tbaa !12
  %69 = getelementptr inbounds nuw %struct.EVP_AES_OCB_CTX, ptr %68, i32 0, i32 4
  %70 = load ptr, ptr %10, align 8, !tbaa !12
  %71 = getelementptr inbounds nuw %struct.EVP_AES_OCB_CTX, ptr %70, i32 0, i32 0
  %72 = load ptr, ptr %10, align 8, !tbaa !12
  %73 = getelementptr inbounds nuw %struct.EVP_AES_OCB_CTX, ptr %72, i32 0, i32 1
  %74 = call i32 @CRYPTO_ocb128_init(ptr noundef %69, ptr noundef %71, ptr noundef %73, ptr noundef @AES_encrypt, ptr noundef @AES_decrypt, ptr noundef null)
  %75 = icmp ne i32 %74, 0
  br i1 %75, label %77, label %76

76:                                               ; preds = %57
  store i32 0, ptr %5, align 4
  store i32 1, ptr %11, align 4
  br label %115

77:                                               ; preds = %57
  br label %78

78:                                               ; preds = %77
  br label %79

79:                                               ; preds = %78, %56
  %80 = load ptr, ptr %8, align 8, !tbaa !10
  %81 = icmp eq ptr %80, null
  br i1 %81, label %82, label %91

82:                                               ; preds = %79
  %83 = load ptr, ptr %10, align 8, !tbaa !12
  %84 = getelementptr inbounds nuw %struct.EVP_AES_OCB_CTX, ptr %83, i32 0, i32 3
  %85 = load i32, ptr %84, align 4, !tbaa !67
  %86 = icmp ne i32 %85, 0
  br i1 %86, label %87, label %91

87:                                               ; preds = %82
  %88 = load ptr, ptr %10, align 8, !tbaa !12
  %89 = getelementptr inbounds nuw %struct.EVP_AES_OCB_CTX, ptr %88, i32 0, i32 5
  %90 = load ptr, ptr %89, align 8, !tbaa !71
  store ptr %90, ptr %8, align 8, !tbaa !10
  br label %91

91:                                               ; preds = %87, %82, %79
  %92 = load ptr, ptr %8, align 8, !tbaa !10
  %93 = icmp ne ptr %92, null
  br i1 %93, label %94, label %112

94:                                               ; preds = %91
  %95 = load ptr, ptr %10, align 8, !tbaa !12
  %96 = getelementptr inbounds nuw %struct.EVP_AES_OCB_CTX, ptr %95, i32 0, i32 4
  %97 = load ptr, ptr %8, align 8, !tbaa !10
  %98 = load ptr, ptr %10, align 8, !tbaa !12
  %99 = getelementptr inbounds nuw %struct.EVP_AES_OCB_CTX, ptr %98, i32 0, i32 11
  %100 = load i32, ptr %99, align 8, !tbaa !72
  %101 = sext i32 %100 to i64
  %102 = load ptr, ptr %10, align 8, !tbaa !12
  %103 = getelementptr inbounds nuw %struct.EVP_AES_OCB_CTX, ptr %102, i32 0, i32 12
  %104 = load i32, ptr %103, align 4, !tbaa !73
  %105 = sext i32 %104 to i64
  %106 = call i32 @CRYPTO_ocb128_setiv(ptr noundef %96, ptr noundef %97, i64 noundef %101, i64 noundef %105)
  %107 = icmp ne i32 %106, 1
  br i1 %107, label %108, label %109

108:                                              ; preds = %94
  store i32 0, ptr %5, align 4
  store i32 1, ptr %11, align 4
  br label %115

109:                                              ; preds = %94
  %110 = load ptr, ptr %10, align 8, !tbaa !12
  %111 = getelementptr inbounds nuw %struct.EVP_AES_OCB_CTX, ptr %110, i32 0, i32 3
  store i32 1, ptr %111, align 4, !tbaa !67
  br label %112

112:                                              ; preds = %109, %91
  %113 = load ptr, ptr %10, align 8, !tbaa !12
  %114 = getelementptr inbounds nuw %struct.EVP_AES_OCB_CTX, ptr %113, i32 0, i32 2
  store i32 1, ptr %114, align 8, !tbaa !74
  store i32 0, ptr %11, align 4
  br label %115

115:                                              ; preds = %112, %108, %76, %55, %30
  call void @llvm.lifetime.end.p0(i64 4, ptr %12) #4
  %116 = load i32, ptr %11, align 4
  switch i32 %116, label %149 [
    i32 0, label %117
  ]

117:                                              ; preds = %115
  br label %148

118:                                              ; preds = %21
  %119 = load ptr, ptr %10, align 8, !tbaa !12
  %120 = getelementptr inbounds nuw %struct.EVP_AES_OCB_CTX, ptr %119, i32 0, i32 2
  %121 = load i32, ptr %120, align 8, !tbaa !74
  %122 = icmp ne i32 %121, 0
  br i1 %122, label %123, label %136

123:                                              ; preds = %118
  %124 = load ptr, ptr %10, align 8, !tbaa !12
  %125 = getelementptr inbounds nuw %struct.EVP_AES_OCB_CTX, ptr %124, i32 0, i32 4
  %126 = load ptr, ptr %8, align 8, !tbaa !10
  %127 = load ptr, ptr %10, align 8, !tbaa !12
  %128 = getelementptr inbounds nuw %struct.EVP_AES_OCB_CTX, ptr %127, i32 0, i32 11
  %129 = load i32, ptr %128, align 8, !tbaa !72
  %130 = sext i32 %129 to i64
  %131 = load ptr, ptr %10, align 8, !tbaa !12
  %132 = getelementptr inbounds nuw %struct.EVP_AES_OCB_CTX, ptr %131, i32 0, i32 12
  %133 = load i32, ptr %132, align 4, !tbaa !73
  %134 = sext i32 %133 to i64
  %135 = call i32 @CRYPTO_ocb128_setiv(ptr noundef %125, ptr noundef %126, i64 noundef %130, i64 noundef %134)
  br label %145

136:                                              ; preds = %118
  %137 = load ptr, ptr %10, align 8, !tbaa !12
  %138 = getelementptr inbounds nuw %struct.EVP_AES_OCB_CTX, ptr %137, i32 0, i32 5
  %139 = load ptr, ptr %138, align 8, !tbaa !71
  %140 = load ptr, ptr %8, align 8, !tbaa !10
  %141 = load ptr, ptr %10, align 8, !tbaa !12
  %142 = getelementptr inbounds nuw %struct.EVP_AES_OCB_CTX, ptr %141, i32 0, i32 11
  %143 = load i32, ptr %142, align 8, !tbaa !72
  %144 = sext i32 %143 to i64
  call void @llvm.memcpy.p0.p0.i64(ptr align 1 %139, ptr align 1 %140, i64 %144, i1 false)
  br label %145

145:                                              ; preds = %136, %123
  %146 = load ptr, ptr %10, align 8, !tbaa !12
  %147 = getelementptr inbounds nuw %struct.EVP_AES_OCB_CTX, ptr %146, i32 0, i32 3
  store i32 1, ptr %147, align 4, !tbaa !67
  br label %148

148:                                              ; preds = %145, %117
  store i32 1, ptr %5, align 4
  store i32 1, ptr %11, align 4
  br label %149

149:                                              ; preds = %148, %115, %20
  call void @llvm.lifetime.end.p0(i64 8, ptr %10) #4
  %150 = load i32, ptr %5, align 4
  ret i32 %150
}