; Function Attrs: nounwind uwtable
define internal range(i32 0, 2) i32 @aes_ocb_init_key(ptr noundef %0, ptr noundef %1, ptr noundef %2, i32 %3) #2 {
  %5 = tail call ptr @EVP_CIPHER_CTX_get_cipher_data(ptr noundef %0) #8
  %6 = icmp eq ptr %2, null
  %7 = icmp eq ptr %1, null
  %or.cond = and i1 %7, %6
  br i1 %or.cond, label %.critedge, label %8

8:                                                ; preds = %4
  br i1 %7, label %45, label %9

9:                                                ; preds = %8
  %10 = tail call i32 @EVP_CIPHER_CTX_get_key_length(ptr noundef %0) #8
  %11 = shl nsw i32 %10, 3
  %12 = icmp slt i32 %10, 1
  br i1 %12, label %13, label %14

13:                                               ; preds = %9
  tail call void @ERR_new() #8
  tail call void @ERR_set_debug(ptr noundef nonnull @.str, i32 noundef 3922, ptr noundef nonnull @__func__.aes_ocb_init_key) #8
  tail call void (i32, i32, ptr, ...) @ERR_set_error(i32 noundef 6, i32 noundef 130, ptr noundef null) #8
  br label %.critedge

14:                                               ; preds = %9
  %15 = load i32, ptr getelementptr inbounds nuw (i8, ptr @OPENSSL_ia32cap_P, i64 4), align 4, !tbaa !3
  %16 = and i32 %15, 512
  %.not51 = icmp eq i32 %16, 0
  %17 = getelementptr inbounds nuw i8, ptr %5, i64 248
  %18 = getelementptr inbounds nuw i8, ptr %5, i64 504
  br i1 %.not51, label %23, label %19

19:                                               ; preds = %14
  %20 = tail call i32 @vpaes_set_encrypt_key(ptr noundef nonnull %1, i32 noundef %11, ptr noundef %5) #8
  %21 = tail call i32 @vpaes_set_decrypt_key(ptr noundef nonnull %1, i32 noundef %11, ptr noundef nonnull %17) #8
  %22 = tail call i32 @CRYPTO_ocb128_init(ptr noundef nonnull %18, ptr noundef %5, ptr noundef nonnull %17, ptr noundef nonnull @vpaes_encrypt, ptr noundef nonnull @vpaes_decrypt, ptr noundef null) #8
  %.not53 = icmp eq i32 %22, 0
  br i1 %.not53, label %.critedge, label %27

23:                                               ; preds = %14
  %24 = tail call i32 @AES_set_encrypt_key(ptr noundef nonnull %1, i32 noundef %11, ptr noundef %5) #8
  %25 = tail call i32 @AES_set_decrypt_key(ptr noundef nonnull %1, i32 noundef %11, ptr noundef nonnull %17) #8
  %26 = tail call i32 @CRYPTO_ocb128_init(ptr noundef nonnull %18, ptr noundef %5, ptr noundef nonnull %17, ptr noundef nonnull @AES_encrypt, ptr noundef nonnull @AES_decrypt, ptr noundef null) #8
  %.not52 = icmp eq i32 %26, 0
  br i1 %.not52, label %.critedge, label %27

27:                                               ; preds = %23, %19
  br i1 %6, label %28, label %.thread59

28:                                               ; preds = %27
  %29 = getelementptr inbounds nuw i8, ptr %5, i64 500
  %30 = load i32, ptr %29, align 4, !tbaa !58
  %.not54 = icmp eq i32 %30, 0
  br i1 %.not54, label %.thread, label %31

31:                                               ; preds = %28
  %32 = getelementptr inbounds nuw i8, ptr %5, i64 680
  %33 = load ptr, ptr %32, align 8, !tbaa !62
  %.not55 = icmp eq ptr %33, null
  br i1 %.not55, label %.thread, label %.thread59

.thread59:                                        ; preds = %27, %31
  %.04662 = phi ptr [ %33, %31 ], [ %2, %27 ]
  %34 = getelementptr inbounds nuw i8, ptr %5, i64 504
  %35 = getelementptr inbounds nuw i8, ptr %5, i64 744
  %36 = load i32, ptr %35, align 8, !tbaa !63
  %37 = sext i32 %36 to i64
  %38 = getelementptr inbounds nuw i8, ptr %5, i64 748
  %39 = load i32, ptr %38, align 4, !tbaa !64
  %40 = sext i32 %39 to i64
  %41 = tail call i32 @CRYPTO_ocb128_setiv(ptr noundef nonnull %34, ptr noundef nonnull %.04662, i64 noundef %37, i64 noundef %40) #8
  %.not56 = icmp eq i32 %41, 1
  br i1 %.not56, label %42, label %.critedge

42:                                               ; preds = %.thread59
  %43 = getelementptr inbounds nuw i8, ptr %5, i64 500
  store i32 1, ptr %43, align 4, !tbaa !58
  br label %.thread

.thread:                                          ; preds = %28, %42, %31
  %44 = getelementptr inbounds nuw i8, ptr %5, i64 496
  store i32 1, ptr %44, align 8, !tbaa !65
  br label %.critedge

45:                                               ; preds = %8
  %46 = getelementptr inbounds nuw i8, ptr %5, i64 496
  %47 = load i32, ptr %46, align 8, !tbaa !65
  %.not50 = icmp eq i32 %47, 0
  br i1 %.not50, label %57, label %48

48:                                               ; preds = %45
  %49 = getelementptr inbounds nuw i8, ptr %5, i64 504
  %50 = getelementptr inbounds nuw i8, ptr %5, i64 744
  %51 = load i32, ptr %50, align 8, !tbaa !63
  %52 = sext i32 %51 to i64
  %53 = getelementptr inbounds nuw i8, ptr %5, i64 748
  %54 = load i32, ptr %53, align 4, !tbaa !64
  %55 = sext i32 %54 to i64
  %56 = tail call i32 @CRYPTO_ocb128_setiv(ptr noundef nonnull %49, ptr noundef %2, i64 noundef %52, i64 noundef %55) #8
  br label %63

57:                                               ; preds = %45
  %58 = getelementptr inbounds nuw i8, ptr %5, i64 680
  %59 = load ptr, ptr %58, align 8, !tbaa !62
  %60 = getelementptr inbounds nuw i8, ptr %5, i64 744
  %61 = load i32, ptr %60, align 8, !tbaa !63
  %62 = sext i32 %61 to i64
  tail call void @llvm.memcpy.p0.p0.i64(ptr align 1 %59, ptr align 1 %2, i64 %62, i1 false)
  br label %63

63:                                               ; preds = %57, %48
  %64 = getelementptr inbounds nuw i8, ptr %5, i64 500
  store i32 1, ptr %64, align 4, !tbaa !58
  br label %.critedge

.critedge:                                        ; preds = %13, %19, %23, %.thread59, %63, %.thread, %4
  %.0 = phi i32 [ 1, %4 ], [ 1, %.thread ], [ 1, %63 ], [ 0, %.thread59 ], [ 0, %23 ], [ 0, %19 ], [ 0, %13 ]
  ret i32 %.0
}